target datalayout = "e-m:e-p270:32:32-p271:32:32-p272:64:64-i64:64-i128:128-f80:128-n8:16:32:64-S128"
target triple = "x86_64-pc-linux-gnu"

%"class.cv::dnn_objdetect::InferBbox" = type { %"class.std::vector", %"class.cv::Mat", %"class.cv::Mat", %"class.cv::Mat", i32, i32, i32, i32, %"class.std::vector.0", %"class.std::vector.5", %"class.std::vector.5", %"class.std::vector.10", i32, i32, i64, double, double, i64, double }
%"class.std::vector" = type { %"struct.std::_Vector_base" }
%"struct.std::_Vector_base" = type { %"struct.std::_Vector_base<cv::dnn_objdetect::object, std::allocator<cv::dnn_objdetect::object>>::_Vector_impl" }
%"struct.std::_Vector_base<cv::dnn_objdetect::object, std::allocator<cv::dnn_objdetect::object>>::_Vector_impl" = type { %"struct.std::_Vector_base<cv::dnn_objdetect::object, std::allocator<cv::dnn_objdetect::object>>::_Vector_impl_data" }
%"struct.std::_Vector_base<cv::dnn_objdetect::object, std::allocator<cv::dnn_objdetect::object>>::_Vector_impl_data" = type { ptr, ptr, ptr }
%"class.cv::Mat" = type { i32, i32, i32, i32, ptr, ptr, ptr, ptr, ptr, ptr, %"struct.cv::MatSize", %"struct.cv::MatStep" }
%"struct.cv::MatSize" = type { ptr }
%"struct.cv::MatStep" = type { ptr, [2 x i64] }
%"class.std::vector.0" = type { %"struct.std::_Vector_base.1" }
%"struct.std::_Vector_base.1" = type { %"struct.std::_Vector_base<std::vector<double>, std::allocator<std::vector<double>>>::_Vector_impl" }
%"struct.std::_Vector_base<std::vector<double>, std::allocator<std::vector<double>>>::_Vector_impl" = type { %"struct.std::_Vector_base<std::vector<double>, std::allocator<std::vector<double>>>::_Vector_impl_data" }
%"struct.std::_Vector_base<std::vector<double>, std::allocator<std::vector<double>>>::_Vector_impl_data" = type { ptr, ptr, ptr }
%"class.std::vector.5" = type { %"struct.std::_Vector_base.6" }
%"struct.std::_Vector_base.6" = type { %"struct.std::_Vector_base<std::pair<double, double>, std::allocator<std::pair<double, double>>>::_Vector_impl" }
%"struct.std::_Vector_base<std::pair<double, double>, std::allocator<std::pair<double, double>>>::_Vector_impl" = type { %"struct.std::_Vector_base<std::pair<double, double>, std::allocator<std::pair<double, double>>>::_Vector_impl_data" }
%"struct.std::_Vector_base<std::pair<double, double>, std::allocator<std::pair<double, double>>>::_Vector_impl_data" = type { ptr, ptr, ptr }
%"class.std::vector.10" = type { %"struct.std::_Vector_base.11" }
%"struct.std::_Vector_base.11" = type { %"struct.std::_Vector_base<std::__cxx11::basic_string<char>, std::allocator<std::__cxx11::basic_string<char>>>::_Vector_impl" }
%"struct.std::_Vector_base<std::__cxx11::basic_string<char>, std::allocator<std::__cxx11::basic_string<char>>>::_Vector_impl" = type { %"struct.std::_Vector_base<std::__cxx11::basic_string<char>, std::allocator<std::__cxx11::basic_string<char>>>::_Vector_impl_data" }
%"struct.std::_Vector_base<std::__cxx11::basic_string<char>, std::allocator<std::__cxx11::basic_string<char>>>::_Vector_impl_data" = type { ptr, ptr, ptr }
%"class.std::vector.15" = type { %"struct.std::_Vector_base.16" }
%"struct.std::_Vector_base.16" = type { %"struct.std::_Vector_base<double, std::allocator<double>>::_Vector_impl" }
%"struct.std::_Vector_base<double, std::allocator<double>>::_Vector_impl" = type { %"struct.std::_Vector_base<double, std::allocator<double>>::_Vector_impl_data" }
%"struct.std::_Vector_base<double, std::allocator<double>>::_Vector_impl_data" = type { ptr, ptr, ptr }

; Function Attrs: inlinehint mustprogress nounwind uwtable
define linkonce_odr hidden noundef ptr @_ZN2cv3Mat3ptrEiii(ptr noundef nonnull align 8 dereferenceable(96) %0, i32 noundef %1, i32 noundef %2, i32 noundef %3) #10 comdat align 2 {
  %5 = alloca ptr, align 8
  %6 = alloca i32, align 4
  %7 = alloca i32, align 4
  %8 = alloca i32, align 4
  store ptr %0, ptr %5, align 8, !tbaa !8
  store i32 %1, ptr %6, align 4, !tbaa !95
  store i32 %2, ptr %7, align 4, !tbaa !95
  store i32 %3, ptr %8, align 4, !tbaa !95
  %9 = load ptr, ptr %5, align 8
  %10 = getelementptr inbounds nuw %"class.cv::Mat", ptr %9, i32 0, i32 4
  %11 = load ptr, ptr %10, align 8, !tbaa !137
  %12 = load i32, ptr %6, align 4, !tbaa !95
  %13 = sext i32 %12 to i64
  %14 = getelementptr inbounds nuw %"class.cv::Mat", ptr %9, i32 0, i32 11
  %15 = getelementptr inbounds nuw %"struct.cv::MatStep", ptr %14, i32 0, i32 0
  %16 = load ptr, ptr %15, align 8, !tbaa !138
  %17 = getelementptr inbounds i64, ptr %16, i64 0
  %18 = load i64, ptr %17, align 8, !tbaa !52
  %19 = mul i64 %13, %18
  %20 = getelementptr inbounds nuw i8, ptr %11, i64 %19
  %21 = load i32, ptr %7, align 4, !tbaa !95
  %22 = sext i32 %21 to i64
  %23 = getelementptr inbounds nuw %"class.cv::Mat", ptr %9, i32 0, i32 11
  %24 = getelementptr inbounds nuw %"struct.cv::MatStep", ptr %23, i32 0, i32 0
  %25 = load ptr, ptr %24, align 8, !tbaa !138
  %26 = getelementptr inbounds i64, ptr %25, i64 1
  %27 = load i64, ptr %26, align 8, !tbaa !52
  %28 = mul i64 %22, %27
  %29 = getelementptr inbounds nuw i8, ptr %20, i64 %28
  %30 = load i32, ptr %8, align 4, !tbaa !95
  %31 = sext i32 %30 to i64
  %32 = getelementptr inbounds nuw %"class.cv::Mat", ptr %9, i32 0, i32 11
  %33 = getelementptr inbounds nuw %"struct.cv::MatStep", ptr %32, i32 0, i32 0
  %34 = load ptr, ptr %33, align 8, !tbaa !138
  %35 = getelementptr inbounds i64, ptr %34, i64 2
  %36 = load i64, ptr %35, align 8, !tbaa !52
  %37 = mul i64 %31, %36
  %38 = getelementptr inbounds nuw i8, ptr %29, i64 %37
  ret ptr %38
}

; Function Attrs: mustprogress nounwind uwtable
define linkonce_odr hidden noundef nonnull align 8 dereferenceable(8) ptr @_ZNSt6vectorIdSaIdEEixEm(ptr noundef nonnull align 8 dereferenceable(24) %0, i64 noundef %1) #5 comdat align 2 {
  %3 = alloca ptr, align 8
  %4 = alloca i64, align 8
  store ptr %0, ptr %3, align 8, !tbaa !73
  store i64 %1, ptr %4, align 8, !tbaa !52
  %5 = load ptr, ptr %3, align 8
  %6 = getelementptr inbounds nuw %"struct.std::_Vector_base.16", ptr %5, i32 0, i32 0
  %7 = getelementptr inbounds nuw %"struct.std::_Vector_base<double, std::allocator<double>>::_Vector_impl_data", ptr %6, i32 0, i32 0
  %8 = load ptr, ptr %7, align 8, !tbaa !74
  %9 = load i64, ptr %4, align 8, !tbaa !52
  %10 = getelementptr inbounds nuw double, ptr %8, i64 %9
  ret ptr %10
}

; Function Attrs: mustprogress nounwind uwtable
define linkonce_odr hidden noundef nonnull align 8 dereferenceable(24) ptr @_ZNSt6vectorIS_IdSaIdEESaIS1_EEixEm(ptr noundef nonnull align 8 dereferenceable(24) %0, i64 noundef %1) #5 comdat align 2 {
  %3 = alloca ptr, align 8
  %4 = alloca i64, align 8
  store ptr %0, ptr %3, align 8, !tbaa !66
  store i64 %1, ptr %4, align 8, !tbaa !52
  %5 = load ptr, ptr %3, align 8
  %6 = getelementptr inbounds nuw %"struct.std::_Vector_base.1", ptr %5, i32 0, i32 0
  %7 = getelementptr inbounds nuw %"struct.std::_Vector_base<std::vector<double>, std::allocator<std::vector<double>>>::_Vector_impl_data", ptr %6, i32 0, i32 0
  %8 = load ptr, ptr %7, align 8, !tbaa !72
  %9 = load i64, ptr %4, align 8, !tbaa !52
  %10 = getelementptr inbounds nuw %"class.std::vector.15", ptr %8, i64 %9
  ret ptr %10
}

; Function Attrs: inlinehint mustprogress nounwind uwtable
define linkonce_odr hidden noundef nonnull align 4 dereferenceable(4) ptr @_ZN2cv3Mat2atIfEERT_ii(ptr noundef nonnull align 8 dereferenceable(96) %0, i32 noundef %1, i32 noundef %2) #10 comdat align 2 {
  %4 = alloca ptr, align 8
  %5 = alloca i32, align 4
  %6 = alloca i32, align 4
  store ptr %0, ptr %4, align 8, !tbaa !8
  store i32 %1, ptr %5, align 4, !tbaa !95
  store i32 %2, ptr %6, align 4, !tbaa !95
  %7 = load ptr, ptr %4, align 8
  %8 = getelementptr inbounds nuw %"class.cv::Mat", ptr %7, i32 0, i32 4
  %9 = load ptr, ptr %8, align 8, !tbaa !137
  %10 = getelementptr inbounds nuw %"class.cv::Mat", ptr %7, i32 0, i32 11
  %11 = getelementptr inbounds nuw %"struct.cv::MatStep", ptr %10, i32 0, i32 0
  %12 = load ptr, ptr %11, align 8, !tbaa !138
  %13 = getelementptr inbounds i64, ptr %12, i64 0
  %14 = load i64, ptr %13, align 8, !tbaa !52
  %15 = load i32, ptr %5, align 4, !tbaa !95
  %16 = sext i32 %15 to i64
  %17 = mul i64 %14, %16
  %18 = getelementptr inbounds nuw i8, ptr %9, i64 %17
  %19 = load i32, ptr %6, align 4, !tbaa !95
  %20 = sext i32 %19 to i64
  %21 = getelementptr inbounds float, ptr %18, i64 %20
  ret ptr %21
}

; Function Attrs: inlinehint mustprogress uwtable
define linkonce_odr hidden noundef nonnull align 4 dereferenceable(4) ptr @_ZN2cv3Mat2atIfEERT_iii(ptr noundef nonnull align 8 dereferenceable(96) %0, i32 noundef %1, i32 noundef %2, i32 noundef %3) #8 comdat align 2 {
  %5 = alloca ptr, align 8
  %6 = alloca i32, align 4
  %7 = alloca i32, align 4
  %8 = alloca i32, align 4
  store ptr %0, ptr %5, align 8, !tbaa !8
  store i32 %1, ptr %6, align 4, !tbaa !95
  store i32 %2, ptr %7, align 4, !tbaa !95
  store i32 %3, ptr %8, align 4, !tbaa !95
  %9 = load ptr, ptr %5, align 8
  %10 = load i32, ptr %6, align 4, !tbaa !95
  %11 = load i32, ptr %7, align 4, !tbaa !95
  %12 = load i32, ptr %8, align 4, !tbaa !95
  %13 = call noundef ptr @_ZN2cv3Mat3ptrEiii(ptr noundef nonnull align 8 dereferenceable(96) %9, i32 noundef %10, i32 noundef %11, i32 noundef %12)
  ret ptr %13
}

; Function Attrs: mustprogress uwtable
define void @_ZN2cv13dnn_objdetect9InferBbox22final_probability_distEPSt6vectorIS2_IdSaIdEESaIS4_EE(ptr noundef nonnull align 8 dereferenceable(472) %0, ptr noundef %1) #4 align 2 {
  %3 = alloca ptr, align 8
  %4 = alloca ptr, align 8
  %5 = alloca i32, align 4
  %6 = alloca i32, align 4
  %7 = alloca i32, align 4
  %8 = alloca i32, align 4
  %9 = alloca i32, align 4
  %10 = alloca double, align 8
  %11 = alloca double, align 8
  store ptr %0, ptr %3, align 8, !tbaa !3
  store ptr %1, ptr %4, align 8, !tbaa !66
  %12 = load ptr, ptr %3, align 8
  call void @llvm.lifetime.start.p0(i64 4, ptr %5) #3
  store i32 0, ptr %5, align 4, !tbaa !95
  br label %13

13:                                               ; preds = %91, %2
  %14 = load i32, ptr %5, align 4, !tbaa !95
  %15 = getelementptr inbounds nuw %"class.cv::dnn_objdetect::InferBbox", ptr %12, i32 0, i32 7
  %16 = load i32, ptr %15, align 4, !tbaa !44
  %17 = icmp ult i32 %14, %16
  br i1 %17, label %19, label %18

18:                                               ; preds = %13
  store i32 2, ptr %6, align 4
  call void @llvm.lifetime.end.p0(i64 4, ptr %5) #3
  br label %94

19:                                               ; preds = %13
  call void @llvm.lifetime.start.p0(i64 4, ptr %7) #3
  store i32 0, ptr %7, align 4, !tbaa !95
  br label %20

20:                                               ; preds = %87, %19
  %21 = load i32, ptr %7, align 4, !tbaa !95
  %22 = getelementptr inbounds nuw %"class.cv::dnn_objdetect::InferBbox", ptr %12, i32 0, i32 6
  %23 = load i32, ptr %22, align 8, !tbaa !43
  %24 = icmp ult i32 %21, %23
  br i1 %24, label %26, label %25

25:                                               ; preds = %20
  store i32 5, ptr %6, align 4
  call void @llvm.lifetime.end.p0(i64 4, ptr %7) #3
  br label %90

26:                                               ; preds = %20
  call void @llvm.lifetime.start.p0(i64 4, ptr %8) #3
  store i32 0, ptr %8, align 4, !tbaa !95
  br label %27

27:                                               ; preds = %83, %26
  %28 = load i32, ptr %8, align 4, !tbaa !95
  %29 = getelementptr inbounds nuw %"class.cv::dnn_objdetect::InferBbox", ptr %12, i32 0, i32 13
  %30 = load i32, ptr %29, align 4, !tbaa !46
  %31 = getelementptr inbounds nuw %"class.cv::dnn_objdetect::InferBbox", ptr %12, i32 0, i32 12
  %32 = load i32, ptr %31, align 8, !tbaa !45
  %33 = mul i32 %30, %32
  %34 = icmp ult i32 %28, %33
  br i1 %34, label %36, label %35

35:                                               ; preds = %27
  store i32 8, ptr %6, align 4
  call void @llvm.lifetime.end.p0(i64 4, ptr %8) #3
  br label %86

36:                                               ; preds = %27
  call void @llvm.lifetime.start.p0(i64 4, ptr %9) #3
  %37 = load i32, ptr %5, align 4, !tbaa !95
  %38 = getelementptr inbounds nuw %"class.cv::dnn_objdetect::InferBbox", ptr %12, i32 0, i32 6
  %39 = load i32, ptr %38, align 8, !tbaa !43
  %40 = mul i32 %37, %39
  %41 = load i32, ptr %7, align 4, !tbaa !95
  %42 = add i32 %40, %41
  %43 = getelementptr inbounds nuw %"class.cv::dnn_objdetect::InferBbox", ptr %12, i32 0, i32 13
  %44 = load i32, ptr %43, align 4, !tbaa !46
  %45 = mul i32 %42, %44
  %46 = load i32, ptr %8, align 4, !tbaa !95
  %47 = getelementptr inbounds nuw %"class.cv::dnn_objdetect::InferBbox", ptr %12, i32 0, i32 12
  %48 = load i32, ptr %47, align 8, !tbaa !45
  %49 = udiv i32 %46, %48
  %50 = add i32 %45, %49
  store i32 %50, ptr %9, align 4, !tbaa !95
  call void @llvm.lifetime.start.p0(i64 8, ptr %10) #3
  %51 = getelementptr inbounds nuw %"class.cv::dnn_objdetect::InferBbox", ptr %12, i32 0, i32 3
  %52 = load i32, ptr %5, align 4, !tbaa !95
  %53 = load i32, ptr %7, align 4, !tbaa !95
  %54 = load i32, ptr %8, align 4, !tbaa !95
  %55 = getelementptr inbounds nuw %"class.cv::dnn_objdetect::InferBbox", ptr %12, i32 0, i32 12
  %56 = load i32, ptr %55, align 8, !tbaa !45
  %57 = udiv i32 %54, %56
  %58 = call noundef nonnull align 4 dereferenceable(4) ptr @_ZN2cv3Mat2atIfEERT_iii(ptr noundef nonnull align 8 dereferenceable(96) %51, i32 noundef %52, i32 noundef %53, i32 noundef %57)
  %59 = load float, ptr %58, align 4, !tbaa !96
  %60 = fpext float %59 to double
  store double %60, ptr %10, align 8, !tbaa !56
  call void @llvm.lifetime.start.p0(i64 8, ptr %11) #3
  %61 = getelementptr inbounds nuw %"class.cv::dnn_objdetect::InferBbox", ptr %12, i32 0, i32 2
  %62 = load i32, ptr %9, align 4, !tbaa !95
  %63 = load i32, ptr %8, align 4, !tbaa !95
  %64 = getelementptr inbounds nuw %"class.cv::dnn_objdetect::InferBbox", ptr %12, i32 0, i32 12
  %65 = load i32, ptr %64, align 8, !tbaa !45
  %66 = urem i32 %63, %65
  %67 = call noundef nonnull align 4 dereferenceable(4) ptr @_ZN2cv3Mat2atIfEERT_ii(ptr noundef nonnull align 8 dereferenceable(96) %61, i32 noundef %62, i32 noundef %66)
  %68 = load float, ptr %67, align 4, !tbaa !96
  %69 = fpext float %68 to double
  store double %69, ptr %11, align 8, !tbaa !56
  %70 = load double, ptr %10, align 8, !tbaa !56
  %71 = load double, ptr %11, align 8, !tbaa !56
  %72 = fmul double %70, %71
  %73 = load ptr, ptr %4, align 8, !tbaa !66
  %74 = load i32, ptr %9, align 4, !tbaa !95
  %75 = sext i32 %74 to i64
  %76 = call noundef nonnull align 8 dereferenceable(24) ptr @_ZNSt6vectorIS_IdSaIdEESaIS1_EEixEm(ptr noundef nonnull align 8 dereferenceable(24) %73, i64 noundef %75) #3
  %77 = load i32, ptr %8, align 4, !tbaa !95
  %78 = getelementptr inbounds nuw %"class.cv::dnn_objdetect::InferBbox", ptr %12, i32 0, i32 12
  %79 = load i32, ptr %78, align 8, !tbaa !45
  %80 = urem i32 %77, %79
  %81 = zext i32 %80 to i64
  %82 = call noundef nonnull align 8 dereferenceable(8) ptr @_ZNSt6vectorIdSaIdEEixEm(ptr noundef nonnull align 8 dereferenceable(24) %76, i64 noundef %81) #3
  store double %72, ptr %82, align 8, !tbaa !56
  call void @llvm.lifetime.end.p0(i64 8, ptr %11) #3
  call void @llvm.lifetime.end.p0(i64 8, ptr %10) #3
  call void @llvm.lifetime.end.p0(i64 4, ptr %9) #3
  br label %83

83:                                               ; preds = %36
  %84 = load i32, ptr %8, align 4, !tbaa !95
  %85 = add i32 %84, 1
  store i32 %85, ptr %8, align 4, !tbaa !95
  br label %27, !llvm.loop !103

86:                                               ; preds = %35
  br label %87

87:                                               ; preds = %86
  %88 = load i32, ptr %7, align 4, !tbaa !95
  %89 = add i32 %88, 1
  store i32 %89, ptr %7, align 4, !tbaa !95
  br label %20, !llvm.loop !104

90:                                               ; preds = %25
  br label %91

91:                                               ; preds = %90
  %92 = load i32, ptr %5, align 4, !tbaa !95
  %93 = add i32 %92, 1
  store i32 %93, ptr %5, align 4, !tbaa !95
  br label %13, !llvm.loop !105

94:                                               ; preds = %18
  ret void
}