; Function Attrs: mustprogress nofree norecurse nosync nounwind memory(readwrite, inaccessiblemem: none) uwtable
define void @_ZN2cv13dnn_objdetect9InferBbox22final_probability_distEPSt6vectorIS2_IdSaIdEESaIS4_EE(ptr noundef nonnull readonly align 8 captures(none) dereferenceable(472) %0, ptr noundef readonly captures(none) %1) local_unnamed_addr #8 align 2 {
  %3 = getelementptr inbounds nuw i8, ptr %0, i64 324
  %4 = load i32, ptr %3, align 4, !tbaa !40
  %.not = icmp eq i32 %4, 0
  br i1 %.not, label %._crit_edge, label %.preheader21.lr.ph

.preheader21.lr.ph:                               ; preds = %2
  %5 = getelementptr inbounds nuw i8, ptr %0, i64 320
  %6 = load i32, ptr %5, align 8, !tbaa !39
  %.not30 = icmp eq i32 %6, 0
  %7 = getelementptr inbounds nuw i8, ptr %0, i64 428
  %8 = load i32, ptr %7, align 4
  %9 = getelementptr inbounds nuw i8, ptr %0, i64 424
  %10 = load i32, ptr %9, align 8
  %11 = mul i32 %10, %8
  %12 = getelementptr inbounds nuw i8, ptr %0, i64 232
  %13 = getelementptr inbounds nuw i8, ptr %0, i64 288
  %14 = getelementptr inbounds nuw i8, ptr %0, i64 136
  %15 = getelementptr inbounds nuw i8, ptr %0, i64 192
  %.not31 = icmp eq i32 %11, 0
  %or.cond = select i1 %.not30, i1 true, i1 %.not31
  br i1 %or.cond, label %._crit_edge, label %.preheader21.lr.ph.split.us.split.us

.preheader21.lr.ph.split.us.split.us:             ; preds = %.preheader21.lr.ph
  %16 = load ptr, ptr %1, align 8, !tbaa !49
  br label %.preheader21.us.us

.preheader21.us.us:                               ; preds = %._crit_edge24.split.us.us.us, %.preheader21.lr.ph.split.us.split.us
  %.025.us.us = phi i32 [ 0, %.preheader21.lr.ph.split.us.split.us ], [ %59, %._crit_edge24.split.us.us.us ]
  %17 = mul i32 %6, %.025.us.us
  %18 = load ptr, ptr %12, align 8
  %19 = sext i32 %.025.us.us to i64
  %20 = load ptr, ptr %13, align 8
  %21 = getelementptr inbounds nuw i8, ptr %20, i64 8
  %22 = getelementptr inbounds nuw i8, ptr %20, i64 16
  %23 = load ptr, ptr %14, align 8
  %24 = load ptr, ptr %15, align 8
  %25 = load i64, ptr %20, align 8, !tbaa !85
  %26 = mul i64 %25, %19
  %27 = getelementptr inbounds nuw i8, ptr %18, i64 %26
  %28 = load i64, ptr %21, align 8, !tbaa !85
  %29 = load i64, ptr %22, align 8, !tbaa !85
  %30 = load i64, ptr %24, align 8, !tbaa !85
  br label %.preheader.us.us.us

.preheader.us.us.us:                              ; preds = %._crit_edge.us.us.us, %.preheader21.us.us
  %.01923.us.us.us = phi i32 [ 0, %.preheader21.us.us ], [ %58, %._crit_edge.us.us.us ]
  %31 = add i32 %17, %.01923.us.us.us
  %32 = mul i32 %8, %31
  %33 = sext i32 %.01923.us.us.us to i64
  %34 = mul i64 %28, %33
  %35 = getelementptr inbounds nuw i8, ptr %27, i64 %34
  br label %36

36:                                               ; preds = %36, %.preheader.us.us.us
  %.02022.us.us.us = phi i32 [ 0, %.preheader.us.us.us ], [ %57, %36 ]
  %37 = udiv i32 %.02022.us.us.us, %10
  %38 = add i32 %37, %32
  %39 = sext i32 %37 to i64
  %40 = mul i64 %29, %39
  %41 = getelementptr inbounds nuw i8, ptr %35, i64 %40
  %42 = load float, ptr %41, align 4, !tbaa !96
  %43 = fpext float %42 to double
  %44 = urem i32 %.02022.us.us.us, %10
  %45 = sext i32 %38 to i64
  %46 = mul i64 %30, %45
  %47 = getelementptr inbounds nuw i8, ptr %23, i64 %46
  %48 = sext i32 %44 to i64
  %49 = getelementptr inbounds float, ptr %47, i64 %48
  %50 = load float, ptr %49, align 4, !tbaa !96
  %51 = fpext float %50 to double
  %52 = fmul double %43, %51
  %53 = getelementptr inbounds nuw %"class.std::vector.15", ptr %16, i64 %45
  %54 = zext i32 %44 to i64
  %55 = load ptr, ptr %53, align 8, !tbaa !50
  %56 = getelementptr inbounds nuw double, ptr %55, i64 %54
  store double %52, ptr %56, align 8, !tbaa !58
  %57 = add nuw i32 %.02022.us.us.us, 1
  %exitcond.not = icmp eq i32 %57, %11
  br i1 %exitcond.not, label %._crit_edge.us.us.us, label %36, !llvm.loop !98

._crit_edge.us.us.us:                             ; preds = %36
  %58 = add nuw i32 %.01923.us.us.us, 1
  %exitcond34.not = icmp eq i32 %58, %6
  br i1 %exitcond34.not, label %._crit_edge24.split.us.us.us, label %.preheader.us.us.us, !llvm.loop !99

._crit_edge24.split.us.us.us:                     ; preds = %._crit_edge.us.us.us
  %59 = add nuw i32 %.025.us.us, 1
  %exitcond35.not = icmp eq i32 %59, %4
  br i1 %exitcond35.not, label %._crit_edge, label %.preheader21.us.us, !llvm.loop !100

._crit_edge:                                      ; preds = %._crit_edge24.split.us.us.us, %.preheader21.lr.ph, %2
  ret void
}